target datalayout = "e-m:e-p270:32:32-p271:32:32-p272:64:64-i64:64-i128:128-f80:128-n8:16:32:64-S128"
target triple = "x86_64-pc-linux-gnu"

%struct.Type_ = type { i32, ptr, ptr, ptr, %union.anon.85, ptr, ptr, %union.anon.87 }
%union.anon.85 = type { ptr }
%union.anon.87 = type { %struct.TypeFunction }
%struct.TypeFunction = type { ptr, ptr, ptr }
%struct.Decl_ = type { ptr, ptr, %union.SourceSpan, i64, %union.anon.5, i32, %union.anon.6, i64, ptr, ptr, ptr, %union.anon.7 }
%union.SourceSpan = type { i64 }
%union.anon.5 = type { ptr }
%union.anon.6 = type { i16 }
%union.anon.7 = type { %struct.FuncDecl }
%struct.FuncDecl = type { i32, [4 x i8], %struct.Signature_, i32, i32, %union.anon.14 }
%struct.Signature_ = type <{ %struct.CalleeAttributes, i16, i8, i32, i32, [4 x i8], ptr }>
%struct.CalleeAttributes = type { i8 }
%union.anon.14 = type { %struct.anon.15 }
%struct.anon.15 = type { i16, %union.anon.16 }
%union.anon.16 = type { ptr }
%struct.anon.8 = type { ptr, ptr, %union.anon.9 }
%union.anon.9 = type { %struct.BitStructDecl }
%struct.BitStructDecl = type { ptr, ptr, i8 }
%struct.TypeArray = type { ptr, i32 }
%struct.StructDecl = type { i32, ptr, i32, i16 }
%struct.VHeader_ = type { i32, i32, [0 x i8] }
%struct.AbiType = type { %union.anon.1 }
%union.anon.1 = type { ptr }

@.str = private unnamed_addr constant [36 x i8] c"FATAL ERROR %s -> in %s @ in %s:%d \00", align 1
@.str.1 = private unnamed_addr constant [22 x i8] c"Should be unreachable\00", align 1
@__func__.x64_get_int_type_at_offset = private unnamed_addr constant [27 x i8] c"x64_get_int_type_at_offset\00", align 1
@.str.2 = private unnamed_addr constant [114 x i8] c"generated/home/dtcxzyw/WorkSpace/Projects/compilers/llvm-opt-benchmark/bench/c3c/c3c/src/compiler/abi/c_abi_x64.c\00", align 1
@type_ulong = external global ptr, align 8
@type_voidptr = external global ptr, align 8

; Function Attrs: nounwind uwtable
define internal ptr @abi_type_get_int_bits(i64 noundef %0) #0 {
  %2 = alloca %struct.AbiType, align 8
  %3 = alloca i64, align 8
  store i64 %0, ptr %3, align 8
  %4 = load i64, ptr %3, align 8
  switch i64 %4, label %9 [
    i64 8, label %5
    i64 16, label %5
    i64 32, label %5
    i64 64, label %5
  ]

5:                                                ; preds = %1, %1, %1, %1
  %6 = getelementptr inbounds %struct.AbiType, ptr %2, i32 0, i32 0
  %7 = load i64, ptr %3, align 8
  %8 = call ptr @type_int_unsigned_by_bitsize(i64 noundef %7)
  store ptr %8, ptr %6, align 8
  br label %13

9:                                                ; preds = %1
  %10 = getelementptr inbounds %struct.AbiType, ptr %2, i32 0, i32 0
  %11 = load i64, ptr %3, align 8
  %12 = add i64 %11, 1
  store i64 %12, ptr %10, align 8
  br label %13

13:                                               ; preds = %9, %5
  %14 = getelementptr inbounds %struct.AbiType, ptr %2, i32 0, i32 0
  %15 = getelementptr inbounds %union.anon.1, ptr %14, i32 0, i32 0
  %16 = load ptr, ptr %15, align 8
  ret ptr %16
}

; Function Attrs: nounwind uwtable
define internal ptr @x64_get_member_at_offset(ptr noundef %0, i32 noundef %1) #0 {
  %3 = alloca i32, align 4
  %4 = alloca ptr, align 8
  %5 = alloca ptr, align 8
  %6 = alloca ptr, align 8
  %7 = alloca ptr, align 8
  %8 = alloca i32, align 4
  %9 = alloca ptr, align 8
  %10 = alloca ptr, align 8
  %11 = alloca i32, align 4
  %12 = alloca i32, align 4
  store ptr %0, ptr %7, align 8
  store i32 %1, ptr %8, align 4
  %13 = load ptr, ptr %7, align 8
  %14 = getelementptr inbounds %struct.Decl_, ptr %13, i32 0, i32 10
  %15 = load ptr, ptr %14, align 8
  %16 = call i32 @type_size(ptr noundef %15)
  %17 = load i32, ptr %8, align 4
  %18 = icmp ule i32 %16, %17
  br i1 %18, label %19, label %20

19:                                               ; preds = %2
  store ptr null, ptr %6, align 8
  br label %65

20:                                               ; preds = %2
  %21 = load ptr, ptr %7, align 8
  %22 = getelementptr inbounds %struct.Decl_, ptr %21, i32 0, i32 11
  %23 = getelementptr inbounds %struct.anon.8, ptr %22, i32 0, i32 2
  %24 = getelementptr inbounds %struct.StructDecl, ptr %23, i32 0, i32 1
  %25 = load ptr, ptr %24, align 8
  store ptr %25, ptr %9, align 8
  store ptr null, ptr %10, align 8
  store i32 0, ptr %11, align 4
  %26 = load ptr, ptr %9, align 8
  store ptr %26, ptr %4, align 8
  %27 = load ptr, ptr %4, align 8
  %28 = icmp ne ptr %27, null
  br i1 %28, label %30, label %29

29:                                               ; preds = %20
  store i32 0, ptr %3, align 4
  br label %35

30:                                               ; preds = %20
  %31 = load ptr, ptr %4, align 8
  store ptr %31, ptr %5, align 8
  %32 = load ptr, ptr %5, align 8
  %33 = getelementptr inbounds %struct.VHeader_, ptr %32, i64 -1
  %34 = load i32, ptr %33, align 4
  store i32 %34, ptr %3, align 4
  br label %35

35:                                               ; preds = %30, %29
  %36 = load i32, ptr %3, align 4
  store i32 %36, ptr %12, align 4
  br label %37

37:                                               ; preds = %60, %35
  %38 = load i32, ptr %11, align 4
  %39 = load i32, ptr %12, align 4
  %40 = icmp ult i32 %38, %39
  br i1 %40, label %41, label %63

41:                                               ; preds = %37
  %42 = load ptr, ptr %9, align 8
  %43 = load i32, ptr %11, align 4
  %44 = zext i32 %43 to i64
  %45 = getelementptr inbounds ptr, ptr %42, i64 %44
  %46 = load ptr, ptr %45, align 8
  %47 = getelementptr inbounds %struct.Decl_, ptr %46, i32 0, i32 7
  %48 = load i64, ptr %47, align 8
  %49 = and i64 %48, 4294967295
  %50 = trunc i64 %49 to i32
  %51 = load i32, ptr %8, align 4
  %52 = icmp ugt i32 %50, %51
  br i1 %52, label %53, label %54

53:                                               ; preds = %41
  br label %63

54:                                               ; preds = %41
  %55 = load ptr, ptr %9, align 8
  %56 = load i32, ptr %11, align 4
  %57 = zext i32 %56 to i64
  %58 = getelementptr inbounds ptr, ptr %55, i64 %57
  %59 = load ptr, ptr %58, align 8
  store ptr %59, ptr %10, align 8
  br label %60

60:                                               ; preds = %54
  %61 = load i32, ptr %11, align 4
  %62 = add i32 %61, 1
  store i32 %62, ptr %11, align 4
  br label %37, !llvm.loop !13

63:                                               ; preds = %53, %37
  %64 = load ptr, ptr %10, align 8
  store ptr %64, ptr %6, align 8
  br label %65

65:                                               ; preds = %63, %19
  %66 = load ptr, ptr %6, align 8
  ret ptr %66
}

; Function Attrs: nounwind uwtable
define internal ptr @abi_type_get(ptr noundef %0) #0 {
  %2 = alloca %struct.AbiType, align 8
  %3 = alloca ptr, align 8
  store ptr %0, ptr %3, align 8
  %4 = getelementptr inbounds %struct.AbiType, ptr %2, i32 0, i32 0
  %5 = load ptr, ptr %3, align 8
  store ptr %5, ptr %4, align 8
  %6 = getelementptr inbounds %struct.AbiType, ptr %2, i32 0, i32 0
  %7 = getelementptr inbounds %union.anon.1, ptr %6, i32 0, i32 0
  %8 = load ptr, ptr %7, align 8
  ret ptr %8
}

; Function Attrs: nounwind uwtable
define dso_local ptr @x64_get_int_type_at_offset(ptr noundef %0, i32 noundef %1, ptr noundef %2, i32 noundef %3) #0 {
  %5 = alloca %struct.AbiType, align 8
  %6 = alloca ptr, align 8
  %7 = alloca i32, align 4
  %8 = alloca ptr, align 8
  %9 = alloca i32, align 4
  %10 = alloca ptr, align 8
  %11 = alloca ptr, align 8
  %12 = alloca i32, align 4
  %13 = alloca i32, align 4
  %14 = alloca i64, align 8
  store ptr %0, ptr %6, align 8
  store i32 %1, ptr %7, align 4
  store ptr %2, ptr %8, align 8
  store i32 %3, ptr %9, align 4
  %15 = load ptr, ptr %6, align 8
  %16 = call ptr @type_lowering(ptr noundef %15)
  store ptr %16, ptr %6, align 8
  %17 = load ptr, ptr %6, align 8
  %18 = getelementptr inbounds %struct.Type_, ptr %17, i32 0, i32 0
  %19 = load i32, ptr %18, align 8
  switch i32 %19, label %135 [
    i32 42, label %20
    i32 36, label %20
    i32 38, label %20
    i32 39, label %20
    i32 0, label %20
    i32 43, label %20
    i32 41, label %20
    i32 24, label %20
    i32 31, label %20
    i32 22, label %20
    i32 32, label %20
    i32 21, label %20
    i32 30, label %20
    i32 29, label %20
    i32 40, label %20
    i32 20, label %20
    i32 1, label %20
    i32 25, label %20
    i32 18, label %20
    i32 28, label %20
    i32 11, label %23
    i32 6, label %23
    i32 23, label %23
    i32 2, label %32
    i32 8, label %32
    i32 3, label %32
    i32 4, label %32
    i32 9, label %32
    i32 10, label %32
    i32 5, label %32
    i32 26, label %51
    i32 19, label %76
    i32 34, label %93
    i32 35, label %110
    i32 33, label %113
    i32 7, label %134
    i32 12, label %134
    i32 14, label %134
    i32 13, label %134
    i32 15, label %134
    i32 16, label %134
    i32 17, label %134
    i32 27, label %134
    i32 37, label %134
  ]

20:                                               ; preds = %4, %4, %4, %4, %4, %4, %4, %4, %4, %4, %4, %4, %4, %4, %4, %4, %4, %4, %4, %4
  br label %21

21:                                               ; preds = %20
  call void (ptr, ...) @error_exit(ptr noundef @.str, ptr noundef @.str.1, ptr noundef @__func__.x64_get_int_type_at_offset, ptr noundef @.str.2, i32 noundef 570) #5
  unreachable

22:                                               ; No predecessors!
  br label %23

23:                                               ; preds = %22, %4, %4, %4
  %24 = load i32, ptr %7, align 4
  %25 = icmp ne i32 %24, 0
  br i1 %25, label %31, label %26

26:                                               ; preds = %23
  %27 = load ptr, ptr %6, align 8
  %28 = call ptr @abi_type_get(ptr noundef %27)
  %29 = getelementptr inbounds %struct.AbiType, ptr %5, i32 0, i32 0
  %30 = getelementptr inbounds %union.anon.1, ptr %29, i32 0, i32 0
  store ptr %28, ptr %30, align 8
  br label %158

31:                                               ; preds = %23
  br label %135

32:                                               ; preds = %4, %4, %4, %4, %4, %4, %4
  %33 = load i32, ptr %7, align 4
  %34 = icmp ne i32 %33, 0
  br i1 %34, label %35, label %36

35:                                               ; preds = %32
  br label %135

36:                                               ; preds = %32
  %37 = load ptr, ptr %8, align 8
  %38 = load i32, ptr %9, align 4
  %39 = load ptr, ptr %6, align 8
  %40 = call i32 @type_size(ptr noundef %39)
  %41 = add i32 %38, %40
  %42 = load i32, ptr %9, align 4
  %43 = add i32 %42, 8
  %44 = call zeroext i1 @x64_bits_contain_no_user_data(ptr noundef %37, i32 noundef %41, i32 noundef %43)
  br i1 %44, label %45, label %50

45:                                               ; preds = %36
  %46 = load ptr, ptr %6, align 8
  %47 = call ptr @abi_type_get(ptr noundef %46)
  %48 = getelementptr inbounds %struct.AbiType, ptr %5, i32 0, i32 0
  %49 = getelementptr inbounds %union.anon.1, ptr %48, i32 0, i32 0
  store ptr %47, ptr %49, align 8
  br label %158

50:                                               ; preds = %36
  br label %135

51:                                               ; preds = %4
  %52 = load ptr, ptr %6, align 8
  %53 = getelementptr inbounds %struct.Type_, ptr %52, i32 0, i32 7
  %54 = load ptr, ptr %53, align 8
  %55 = load i32, ptr %7, align 4
  %56 = call ptr @x64_get_member_at_offset(ptr noundef %54, i32 noundef %55)
  store ptr %56, ptr %10, align 8
  %57 = load ptr, ptr %10, align 8
  %58 = icmp ne ptr %57, null
  br i1 %58, label %59, label %75

59:                                               ; preds = %51
  %60 = load ptr, ptr %10, align 8
  %61 = getelementptr inbounds %struct.Decl_, ptr %60, i32 0, i32 10
  %62 = load ptr, ptr %61, align 8
  %63 = load i32, ptr %7, align 4
  %64 = load ptr, ptr %10, align 8
  %65 = getelementptr inbounds %struct.Decl_, ptr %64, i32 0, i32 7
  %66 = load i64, ptr %65, align 8
  %67 = and i64 %66, 4294967295
  %68 = trunc i64 %67 to i32
  %69 = sub i32 %63, %68
  %70 = load ptr, ptr %8, align 8
  %71 = load i32, ptr %9, align 4
  %72 = call ptr @x64_get_int_type_at_offset(ptr noundef %62, i32 noundef %69, ptr noundef %70, i32 noundef %71)
  %73 = getelementptr inbounds %struct.AbiType, ptr %5, i32 0, i32 0
  %74 = getelementptr inbounds %union.anon.1, ptr %73, i32 0, i32 0
  store ptr %72, ptr %74, align 8
  br label %158

75:                                               ; preds = %51
  br label %135

76:                                               ; preds = %4
  %77 = load i32, ptr %7, align 4
  %78 = icmp ult i32 %77, 8
  br i1 %78, label %79, label %84

79:                                               ; preds = %76
  %80 = load ptr, ptr @type_ulong, align 8
  %81 = call ptr @abi_type_get(ptr noundef %80)
  %82 = getelementptr inbounds %struct.AbiType, ptr %5, i32 0, i32 0
  %83 = getelementptr inbounds %union.anon.1, ptr %82, i32 0, i32 0
  store ptr %81, ptr %83, align 8
  br label %158

84:                                               ; preds = %76
  %85 = load i32, ptr %7, align 4
  %86 = icmp ult i32 %85, 16
  br i1 %86, label %87, label %92

87:                                               ; preds = %84
  %88 = load ptr, ptr @type_voidptr, align 8
  %89 = call ptr @abi_type_get(ptr noundef %88)
  %90 = getelementptr inbounds %struct.AbiType, ptr %5, i32 0, i32 0
  %91 = getelementptr inbounds %union.anon.1, ptr %90, i32 0, i32 0
  store ptr %89, ptr %91, align 8
  br label %158

92:                                               ; preds = %84
  br label %135

93:                                               ; preds = %4
  %94 = load i32, ptr %7, align 4
  %95 = icmp ult i32 %94, 8
  br i1 %95, label %96, label %101

96:                                               ; preds = %93
  %97 = load ptr, ptr @type_voidptr, align 8
  %98 = call ptr @abi_type_get(ptr noundef %97)
  %99 = getelementptr inbounds %struct.AbiType, ptr %5, i32 0, i32 0
  %100 = getelementptr inbounds %union.anon.1, ptr %99, i32 0, i32 0
  store ptr %98, ptr %100, align 8
  br label %158

101:                                              ; preds = %93
  %102 = load i32, ptr %7, align 4
  %103 = icmp ult i32 %102, 16
  br i1 %103, label %104, label %109

104:                                              ; preds = %101
  %105 = load ptr, ptr @type_ulong, align 8
  %106 = call ptr @abi_type_get(ptr noundef %105)
  %107 = getelementptr inbounds %struct.AbiType, ptr %5, i32 0, i32 0
  %108 = getelementptr inbounds %union.anon.1, ptr %107, i32 0, i32 0
  store ptr %106, ptr %108, align 8
  br label %158

109:                                              ; preds = %101
  br label %135

110:                                              ; preds = %4
  br label %111

111:                                              ; preds = %110
  call void (ptr, ...) @error_exit(ptr noundef @.str, ptr noundef @.str.1, ptr noundef @__func__.x64_get_int_type_at_offset, ptr noundef @.str.2, i32 noundef 609) #5
  unreachable

112:                                              ; No predecessors!
  br label %113

113:                                              ; preds = %112, %4
  %114 = load ptr, ptr %6, align 8
  %115 = getelementptr inbounds %struct.Type_, ptr %114, i32 0, i32 7
  %116 = getelementptr inbounds %struct.TypeArray, ptr %115, i32 0, i32 0
  %117 = load ptr, ptr %116, align 8
  store ptr %117, ptr %11, align 8
  %118 = load ptr, ptr %11, align 8
  %119 = call i32 @type_size(ptr noundef %118)
  store i32 %119, ptr %12, align 4
  %120 = load i32, ptr %7, align 4
  %121 = load i32, ptr %12, align 4
  %122 = udiv i32 %120, %121
  %123 = load i32, ptr %12, align 4
  %124 = mul i32 %122, %123
  store i32 %124, ptr %13, align 4
  %125 = load ptr, ptr %11, align 8
  %126 = load i32, ptr %7, align 4
  %127 = load i32, ptr %13, align 4
  %128 = sub i32 %126, %127
  %129 = load ptr, ptr %8, align 8
  %130 = load i32, ptr %9, align 4
  %131 = call ptr @x64_get_int_type_at_offset(ptr noundef %125, i32 noundef %128, ptr noundef %129, i32 noundef %130)
  %132 = getelementptr inbounds %struct.AbiType, ptr %5, i32 0, i32 0
  %133 = getelementptr inbounds %union.anon.1, ptr %132, i32 0, i32 0
  store ptr %131, ptr %133, align 8
  br label %158

134:                                              ; preds = %4, %4, %4, %4, %4, %4, %4, %4, %4
  br label %135

135:                                              ; preds = %134, %109, %92, %75, %50, %35, %31, %4
  %136 = load ptr, ptr %8, align 8
  %137 = call i32 @type_size(ptr noundef %136)
  %138 = zext i32 %137 to i64
  store i64 %138, ptr %14, align 8
  %139 = load i64, ptr %14, align 8
  %140 = load i32, ptr %9, align 4
  %141 = zext i32 %140 to i64
  %142 = sub i64 %139, %141
  %143 = icmp ugt i64 %142, 8
  br i1 %143, label %144, label %149

144:                                              ; preds = %135
  %145 = load ptr, ptr @type_ulong, align 8
  %146 = call ptr @abi_type_get(ptr noundef %145)
  %147 = getelementptr inbounds %struct.AbiType, ptr %5, i32 0, i32 0
  %148 = getelementptr inbounds %union.anon.1, ptr %147, i32 0, i32 0
  store ptr %146, ptr %148, align 8
  br label %158

149:                                              ; preds = %135
  %150 = load i64, ptr %14, align 8
  %151 = load i32, ptr %9, align 4
  %152 = zext i32 %151 to i64
  %153 = sub i64 %150, %152
  %154 = mul i64 %153, 8
  %155 = call ptr @abi_type_get_int_bits(i64 noundef %154)
  %156 = getelementptr inbounds %struct.AbiType, ptr %5, i32 0, i32 0
  %157 = getelementptr inbounds %union.anon.1, ptr %156, i32 0, i32 0
  store ptr %155, ptr %157, align 8
  br label %158

158:                                              ; preds = %149, %144, %113, %104, %96, %87, %79, %59, %45, %26
  %159 = getelementptr inbounds %struct.AbiType, ptr %5, i32 0, i32 0
  %160 = getelementptr inbounds %union.anon.1, ptr %159, i32 0, i32 0
  %161 = load ptr, ptr %160, align 8
  ret ptr %161
}