; Function Attrs: nounwind uwtable
define dso_local ptr @x64_get_int_type_at_offset(ptr nocapture noundef readonly %0, i32 noundef %1, ptr noundef %2, i32 noundef %3) local_unnamed_addr #1 {
  br label %tailrecurse

tailrecurse:                                      ; preds = %tailrecurse.backedge, %4
  %.tr = phi ptr [ %0, %4 ], [ %.tr.be, %tailrecurse.backedge ]
  %.tr46 = phi i32 [ %1, %4 ], [ %.tr46.be, %tailrecurse.backedge ]
  %5 = tail call fastcc ptr @type_lowering(ptr noundef %.tr)
  %6 = load i32, ptr %5, align 8
  switch i32 %6, label %x64_get_member_at_offset.exit.thread [
    i32 42, label %7
    i32 36, label %7
    i32 38, label %7
    i32 39, label %7
    i32 0, label %7
    i32 43, label %7
    i32 41, label %7
    i32 24, label %7
    i32 31, label %7
    i32 22, label %7
    i32 32, label %7
    i32 21, label %7
    i32 30, label %7
    i32 29, label %7
    i32 40, label %7
    i32 20, label %7
    i32 1, label %7
    i32 25, label %7
    i32 18, label %7
    i32 28, label %7
    i32 11, label %8
    i32 6, label %8
    i32 23, label %8
    i32 2, label %9
    i32 8, label %9
    i32 3, label %9
    i32 4, label %9
    i32 9, label %9
    i32 10, label %9
    i32 5, label %9
    i32 26, label %15
    i32 19, label %45
    i32 34, label %53
    i32 35, label %61
    i32 33, label %62
  ]

7:                                                ; preds = %tailrecurse, %tailrecurse, %tailrecurse, %tailrecurse, %tailrecurse, %tailrecurse, %tailrecurse, %tailrecurse, %tailrecurse, %tailrecurse, %tailrecurse, %tailrecurse, %tailrecurse, %tailrecurse, %tailrecurse, %tailrecurse, %tailrecurse, %tailrecurse, %tailrecurse, %tailrecurse
  tail call void (ptr, ...) @error_exit(ptr noundef nonnull @.str, ptr noundef nonnull @.str.1, ptr noundef nonnull @__func__.x64_get_int_type_at_offset, ptr noundef nonnull @.str.2, i32 noundef 570) #8
  unreachable

8:                                                ; preds = %tailrecurse, %tailrecurse, %tailrecurse
  %.not39 = icmp eq i32 %.tr46, 0
  br i1 %.not39, label %abi_type_get_int_bits.exit, label %x64_get_member_at_offset.exit.thread

9:                                                ; preds = %tailrecurse, %tailrecurse, %tailrecurse, %tailrecurse, %tailrecurse, %tailrecurse, %tailrecurse
  %.not38 = icmp eq i32 %.tr46, 0
  br i1 %.not38, label %10, label %x64_get_member_at_offset.exit.thread

10:                                               ; preds = %9
  %11 = tail call i32 @type_size(ptr noundef nonnull %5) #7
  %12 = add i32 %11, %3
  %13 = add i32 %3, 8
  %14 = tail call zeroext i1 @x64_bits_contain_no_user_data(ptr noundef %2, i32 noundef %12, i32 noundef %13)
  br i1 %14, label %abi_type_get_int_bits.exit, label %x64_get_member_at_offset.exit.thread

15:                                               ; preds = %tailrecurse
  %16 = getelementptr inbounds i8, ptr %5, i64 56
  %17 = load ptr, ptr %16, align 8
  %18 = getelementptr inbounds i8, ptr %17, i64 72
  %19 = load ptr, ptr %18, align 8
  %20 = tail call i32 @type_size(ptr noundef %19) #7
  %.not.i = icmp ugt i32 %20, %.tr46
  br i1 %.not.i, label %21, label %x64_get_member_at_offset.exit.thread

21:                                               ; preds = %15
  %22 = getelementptr inbounds i8, ptr %17, i64 104
  %23 = load ptr, ptr %22, align 8
  %.not22.i = icmp eq ptr %23, null
  br i1 %.not22.i, label %x64_get_member_at_offset.exit.thread, label %24

24:                                               ; preds = %21
  %25 = getelementptr inbounds i8, ptr %23, i64 -8
  %26 = load i32, ptr %25, align 4
  %.not27.i = icmp eq i32 %26, 0
  br i1 %.not27.i, label %x64_get_member_at_offset.exit.thread, label %.lr.ph.preheader.i

.lr.ph.preheader.i:                               ; preds = %24
  %wide.trip.count.i = zext i32 %26 to i64
  %27 = load ptr, ptr %23, align 8
  %28 = getelementptr inbounds i8, ptr %27, i64 48
  %29 = load i64, ptr %28, align 8
  %30 = trunc i64 %29 to i32
  %31 = icmp ult i32 %.tr46, %30
  br i1 %31, label %x64_get_member_at_offset.exit.thread, label %.lr.ph.preheader

.lr.ph.preheader:                                 ; preds = %.lr.ph.preheader.i
  %exitcond.not.i107 = icmp eq i32 %26, 1
  br i1 %exitcond.not.i107, label %x64_get_member_at_offset.exit.thread42, label %.lr.ph.i, !llvm.loop !14

.lr.ph:                                           ; preds = %.lr.ph.i
  %indvars.iv.next.i = add nuw nsw i64 %indvars.iv.next.i108, 1
  %exitcond.not.i = icmp eq i64 %indvars.iv.next.i, %wide.trip.count.i
  br i1 %exitcond.not.i, label %x64_get_member_at_offset.exit.thread42, label %.lr.ph.i, !llvm.loop !14

.lr.ph.i:                                         ; preds = %.lr.ph.preheader, %.lr.ph
  %indvars.iv.next.i108 = phi i64 [ %indvars.iv.next.i, %.lr.ph ], [ 1, %.lr.ph.preheader ]
  %32 = phi ptr [ %34, %.lr.ph ], [ %27, %.lr.ph.preheader ]
  %33 = getelementptr inbounds ptr, ptr %23, i64 %indvars.iv.next.i108
  %34 = load ptr, ptr %33, align 8
  %35 = getelementptr inbounds i8, ptr %34, i64 48
  %36 = load i64, ptr %35, align 8
  %37 = trunc i64 %36 to i32
  %38 = icmp ult i32 %.tr46, %37
  br i1 %38, label %x64_get_member_at_offset.exit.thread42, label %.lr.ph, !llvm.loop !14

x64_get_member_at_offset.exit.thread42:           ; preds = %.lr.ph.i, %.lr.ph, %.lr.ph.preheader
  %.lcssa = phi ptr [ %27, %.lr.ph.preheader ], [ %32, %.lr.ph.i ], [ %34, %.lr.ph ]
  %39 = getelementptr inbounds i8, ptr %.lcssa, i64 72
  %40 = load ptr, ptr %39, align 8
  %41 = getelementptr inbounds i8, ptr %.lcssa, i64 48
  %42 = load i64, ptr %41, align 8
  %43 = trunc i64 %42 to i32
  %44 = sub i32 %.tr46, %43
  br label %tailrecurse.backedge

tailrecurse.backedge:                             ; preds = %x64_get_member_at_offset.exit.thread42, %62
  %.tr.be = phi ptr [ %40, %x64_get_member_at_offset.exit.thread42 ], [ %64, %62 ]
  %.tr46.be = phi i32 [ %44, %x64_get_member_at_offset.exit.thread42 ], [ %66, %62 ]
  br label %tailrecurse

45:                                               ; preds = %tailrecurse
  %46 = icmp ult i32 %.tr46, 8
  br i1 %46, label %47, label %49

47:                                               ; preds = %45
  %48 = load ptr, ptr @type_ulong, align 8
  br label %abi_type_get_int_bits.exit

49:                                               ; preds = %45
  %50 = icmp ult i32 %.tr46, 16
  br i1 %50, label %51, label %x64_get_member_at_offset.exit.thread

51:                                               ; preds = %49
  %52 = load ptr, ptr @type_voidptr, align 8
  br label %abi_type_get_int_bits.exit

53:                                               ; preds = %tailrecurse
  %54 = icmp ult i32 %.tr46, 8
  br i1 %54, label %55, label %57

55:                                               ; preds = %53
  %56 = load ptr, ptr @type_voidptr, align 8
  br label %abi_type_get_int_bits.exit

57:                                               ; preds = %53
  %58 = icmp ult i32 %.tr46, 16
  br i1 %58, label %59, label %x64_get_member_at_offset.exit.thread

59:                                               ; preds = %57
  %60 = load ptr, ptr @type_ulong, align 8
  br label %abi_type_get_int_bits.exit

61:                                               ; preds = %tailrecurse
  tail call void (ptr, ...) @error_exit(ptr noundef nonnull @.str, ptr noundef nonnull @.str.1, ptr noundef nonnull @__func__.x64_get_int_type_at_offset, ptr noundef nonnull @.str.2, i32 noundef 609) #8
  unreachable

62:                                               ; preds = %tailrecurse
  %63 = getelementptr inbounds i8, ptr %5, i64 56
  %64 = load ptr, ptr %63, align 8
  %65 = tail call i32 @type_size(ptr noundef %64) #7
  %66 = urem i32 %.tr46, %65
  br label %tailrecurse.backedge

x64_get_member_at_offset.exit.thread:             ; preds = %.lr.ph.preheader.i, %21, %24, %15, %tailrecurse, %57, %49, %10, %9, %8
  %67 = tail call i32 @type_size(ptr noundef %2) #7
  %68 = zext i32 %67 to i64
  %69 = zext i32 %3 to i64
  %70 = sub nsw i64 %68, %69
  %71 = icmp ugt i64 %70, 8
  br i1 %71, label %72, label %74

72:                                               ; preds = %x64_get_member_at_offset.exit.thread
  %73 = load ptr, ptr @type_ulong, align 8
  br label %abi_type_get_int_bits.exit

74:                                               ; preds = %x64_get_member_at_offset.exit.thread
  %75 = shl nuw nsw i64 %70, 3
  %76 = add nsw i64 %75, -8
  %77 = lshr exact i64 %76, 3
  switch i64 %77, label %80 [
    i64 0, label %78
    i64 1, label %78
    i64 3, label %78
    i64 7, label %78
  ]

78:                                               ; preds = %74, %74, %74, %74
  %79 = tail call ptr @type_int_unsigned_by_bitsize(i64 noundef %75) #7
  br label %abi_type_get_int_bits.exit

80:                                               ; preds = %74
  %81 = or disjoint i64 %75, 1
  %82 = inttoptr i64 %81 to ptr
  br label %abi_type_get_int_bits.exit

abi_type_get_int_bits.exit:                       ; preds = %80, %78, %10, %8, %72, %59, %55, %51, %47
  %.sroa.0.0 = phi ptr [ %73, %72 ], [ %56, %55 ], [ %60, %59 ], [ %48, %47 ], [ %52, %51 ], [ %5, %8 ], [ %5, %10 ], [ %82, %80 ], [ %79, %78 ]
  ret ptr %.sroa.0.0
}